target datalayout = "e-m:e-p270:32:32-p271:32:32-p272:64:64-i64:64-i128:128-f80:128-n8:16:32:64-S128"
target triple = "x86_64-pc-linux-gnu"

%struct.IVIPicConfig = type { i16, i16, i16, i16, i16, i16, i8, i8 }

; Function Attrs: inlinehint nounwind uwtable
define internal i32 @ivi_pic_config_cmp(ptr noundef %0, ptr noundef %1) #5 {
  %3 = alloca ptr, align 8
  %4 = alloca ptr, align 8
  store ptr %0, ptr %3, align 8, !tbaa !167
  store ptr %1, ptr %4, align 8, !tbaa !167
  %5 = load ptr, ptr %3, align 8, !tbaa !167
  %6 = getelementptr inbounds nuw %struct.IVIPicConfig, ptr %5, i32 0, i32 0
  %7 = load i16, ptr %6, align 2, !tbaa !62
  %8 = zext i16 %7 to i32
  %9 = load ptr, ptr %4, align 8, !tbaa !167
  %10 = getelementptr inbounds nuw %struct.IVIPicConfig, ptr %9, i32 0, i32 0
  %11 = load i16, ptr %10, align 2, !tbaa !62
  %12 = zext i16 %11 to i32
  %13 = icmp ne i32 %8, %12
  br i1 %13, label %84, label %14

14:                                               ; preds = %2
  %15 = load ptr, ptr %3, align 8, !tbaa !167
  %16 = getelementptr inbounds nuw %struct.IVIPicConfig, ptr %15, i32 0, i32 1
  %17 = load i16, ptr %16, align 2, !tbaa !61
  %18 = zext i16 %17 to i32
  %19 = load ptr, ptr %4, align 8, !tbaa !167
  %20 = getelementptr inbounds nuw %struct.IVIPicConfig, ptr %19, i32 0, i32 1
  %21 = load i16, ptr %20, align 2, !tbaa !61
  %22 = zext i16 %21 to i32
  %23 = icmp ne i32 %18, %22
  br i1 %23, label %84, label %24

24:                                               ; preds = %14
  %25 = load ptr, ptr %3, align 8, !tbaa !167
  %26 = getelementptr inbounds nuw %struct.IVIPicConfig, ptr %25, i32 0, i32 2
  %27 = load i16, ptr %26, align 2, !tbaa !68
  %28 = zext i16 %27 to i32
  %29 = load ptr, ptr %4, align 8, !tbaa !167
  %30 = getelementptr inbounds nuw %struct.IVIPicConfig, ptr %29, i32 0, i32 2
  %31 = load i16, ptr %30, align 2, !tbaa !68
  %32 = zext i16 %31 to i32
  %33 = icmp ne i32 %28, %32
  br i1 %33, label %84, label %34

34:                                               ; preds = %24
  %35 = load ptr, ptr %3, align 8, !tbaa !167
  %36 = getelementptr inbounds nuw %struct.IVIPicConfig, ptr %35, i32 0, i32 3
  %37 = load i16, ptr %36, align 2, !tbaa !67
  %38 = zext i16 %37 to i32
  %39 = load ptr, ptr %4, align 8, !tbaa !167
  %40 = getelementptr inbounds nuw %struct.IVIPicConfig, ptr %39, i32 0, i32 3
  %41 = load i16, ptr %40, align 2, !tbaa !67
  %42 = zext i16 %41 to i32
  %43 = icmp ne i32 %38, %42
  br i1 %43, label %84, label %44

44:                                               ; preds = %34
  %45 = load ptr, ptr %3, align 8, !tbaa !167
  %46 = getelementptr inbounds nuw %struct.IVIPicConfig, ptr %45, i32 0, i32 4
  %47 = load i16, ptr %46, align 2, !tbaa !66
  %48 = zext i16 %47 to i32
  %49 = load ptr, ptr %4, align 8, !tbaa !167
  %50 = getelementptr inbounds nuw %struct.IVIPicConfig, ptr %49, i32 0, i32 4
  %51 = load i16, ptr %50, align 2, !tbaa !66
  %52 = zext i16 %51 to i32
  %53 = icmp ne i32 %48, %52
  br i1 %53, label %84, label %54

54:                                               ; preds = %44
  %55 = load ptr, ptr %3, align 8, !tbaa !167
  %56 = getelementptr inbounds nuw %struct.IVIPicConfig, ptr %55, i32 0, i32 5
  %57 = load i16, ptr %56, align 2, !tbaa !65
  %58 = zext i16 %57 to i32
  %59 = load ptr, ptr %4, align 8, !tbaa !167
  %60 = getelementptr inbounds nuw %struct.IVIPicConfig, ptr %59, i32 0, i32 5
  %61 = load i16, ptr %60, align 2, !tbaa !65
  %62 = zext i16 %61 to i32
  %63 = icmp ne i32 %58, %62
  br i1 %63, label %84, label %64

64:                                               ; preds = %54
  %65 = load ptr, ptr %3, align 8, !tbaa !167
  %66 = getelementptr inbounds nuw %struct.IVIPicConfig, ptr %65, i32 0, i32 6
  %67 = load i8, ptr %66, align 2, !tbaa !69
  %68 = zext i8 %67 to i32
  %69 = load ptr, ptr %4, align 8, !tbaa !167
  %70 = getelementptr inbounds nuw %struct.IVIPicConfig, ptr %69, i32 0, i32 6
  %71 = load i8, ptr %70, align 2, !tbaa !69
  %72 = zext i8 %71 to i32
  %73 = icmp ne i32 %68, %72
  br i1 %73, label %84, label %74

74:                                               ; preds = %64
  %75 = load ptr, ptr %3, align 8, !tbaa !167
  %76 = getelementptr inbounds nuw %struct.IVIPicConfig, ptr %75, i32 0, i32 7
  %77 = load i8, ptr %76, align 1, !tbaa !70
  %78 = zext i8 %77 to i32
  %79 = load ptr, ptr %4, align 8, !tbaa !167
  %80 = getelementptr inbounds nuw %struct.IVIPicConfig, ptr %79, i32 0, i32 7
  %81 = load i8, ptr %80, align 1, !tbaa !70
  %82 = zext i8 %81 to i32
  %83 = icmp ne i32 %78, %82
  br label %84

84:                                               ; preds = %74, %64, %54, %44, %34, %24, %14, %2
  %85 = phi i1 [ true, %64 ], [ true, %54 ], [ true, %44 ], [ true, %34 ], [ true, %24 ], [ true, %14 ], [ true, %2 ], [ %83, %74 ]
  %86 = zext i1 %85 to i32
  ret i32 %86
}