; Function Attrs: inlinehint mustprogress nofree norecurse nosync nounwind willreturn memory(argmem: read) uwtable
define internal fastcc range(i32 0, 2) i32 @ivi_pic_config_cmp(ptr noundef nonnull readonly captures(none) %0, ptr noundef readonly captures(none) %1) unnamed_addr #8 {
  %3 = load i16, ptr %0, align 2, !tbaa !62
  %4 = load i16, ptr %1, align 2, !tbaa !62
  %.not = icmp eq i16 %3, %4
  br i1 %.not, label %5, label %42

5:                                                ; preds = %2
  %6 = getelementptr inbounds nuw i8, ptr %0, i64 2
  %7 = load i16, ptr %6, align 2, !tbaa !60
  %8 = getelementptr inbounds nuw i8, ptr %1, i64 2
  %9 = load i16, ptr %8, align 2, !tbaa !60
  %.not16 = icmp eq i16 %7, %9
  br i1 %.not16, label %10, label %42

10:                                               ; preds = %5
  %11 = getelementptr inbounds nuw i8, ptr %0, i64 4
  %12 = load i16, ptr %11, align 2, !tbaa !67
  %13 = getelementptr inbounds nuw i8, ptr %1, i64 4
  %14 = load i16, ptr %13, align 2, !tbaa !67
  %.not17 = icmp eq i16 %12, %14
  br i1 %.not17, label %15, label %42

15:                                               ; preds = %10
  %16 = getelementptr inbounds nuw i8, ptr %0, i64 6
  %17 = load i16, ptr %16, align 2, !tbaa !66
  %18 = getelementptr inbounds nuw i8, ptr %1, i64 6
  %19 = load i16, ptr %18, align 2, !tbaa !66
  %.not18 = icmp eq i16 %17, %19
  br i1 %.not18, label %20, label %42

20:                                               ; preds = %15
  %21 = getelementptr inbounds nuw i8, ptr %0, i64 8
  %22 = load i16, ptr %21, align 2, !tbaa !65
  %23 = getelementptr inbounds nuw i8, ptr %1, i64 8
  %24 = load i16, ptr %23, align 2, !tbaa !65
  %.not19 = icmp eq i16 %22, %24
  br i1 %.not19, label %25, label %42

25:                                               ; preds = %20
  %26 = getelementptr inbounds nuw i8, ptr %0, i64 10
  %27 = load i16, ptr %26, align 2, !tbaa !64
  %28 = getelementptr inbounds nuw i8, ptr %1, i64 10
  %29 = load i16, ptr %28, align 2, !tbaa !64
  %.not20 = icmp eq i16 %27, %29
  br i1 %.not20, label %30, label %42

30:                                               ; preds = %25
  %31 = getelementptr inbounds nuw i8, ptr %0, i64 12
  %32 = load i8, ptr %31, align 2, !tbaa !70
  %33 = getelementptr inbounds nuw i8, ptr %1, i64 12
  %34 = load i8, ptr %33, align 2, !tbaa !70
  %.not21 = icmp eq i8 %32, %34
  br i1 %.not21, label %35, label %42

35:                                               ; preds = %30
  %36 = getelementptr inbounds nuw i8, ptr %0, i64 13
  %37 = load i8, ptr %36, align 1, !tbaa !71
  %38 = getelementptr inbounds nuw i8, ptr %1, i64 13
  %39 = load i8, ptr %38, align 1, !tbaa !71
  %40 = icmp ne i8 %37, %39
  %41 = zext i1 %40 to i32
  br label %42

42:                                               ; preds = %35, %30, %25, %20, %15, %10, %5, %2
  %43 = phi i32 [ 1, %30 ], [ 1, %25 ], [ 1, %20 ], [ 1, %15 ], [ 1, %10 ], [ 1, %5 ], [ 1, %2 ], [ %41, %35 ]
  ret i32 %43
}